target datalayout = "e-m:e-p270:32:32-p271:32:32-p272:64:64-i64:64-i128:128-f80:128-n8:16:32:64-S128"
target triple = "x86_64-pc-linux-gnu"

@_ZN2os5Linux13_libc_versionE = hidden global ptr null, align 8
@_ZN2os5Linux19_libpthread_versionE = hidden global ptr null, align 8

; Function Attrs: mustprogress nounwind uwtable
define linkonce_odr hidden void @_ZN2os5Linux22set_libpthread_versionEPKc(ptr noundef %0) #1 comdat align 2 {
  %2 = alloca ptr, align 8
  store ptr %0, ptr %2, align 8
  %3 = load ptr, ptr %2, align 8
  store ptr %3, ptr @_ZN2os5Linux19_libpthread_versionE, align 8
  ret void
}

; Function Attrs: mustprogress nounwind uwtable
define linkonce_odr hidden void @_ZN2os5Linux16set_libc_versionEPKc(ptr noundef %0) #1 comdat align 2 {
  %2 = alloca ptr, align 8
  store ptr %0, ptr %2, align 8
  %3 = load ptr, ptr %2, align 8
  store ptr %3, ptr @_ZN2os5Linux13_libc_versionE, align 8
  ret void
}

; Function Attrs: mustprogress nounwind uwtable
define hidden void @_ZN2os5Linux15libpthread_initEv() #1 align 2 {
  %1 = alloca i64, align 8
  %2 = alloca ptr, align 8
  %3 = call i64 @confstr(i32 noundef 2, ptr noundef null, i64 noundef 0) #12
  store i64 %3, ptr %1, align 8
  %4 = load i64, ptr %1, align 8
  %5 = call noundef ptr @_ZN2os6mallocEm8MEMFLAGS(i64 noundef %4, i8 noundef zeroext 9)
  store ptr %5, ptr %2, align 8
  %6 = load ptr, ptr %2, align 8
  %7 = load i64, ptr %1, align 8
  %8 = call i64 @confstr(i32 noundef 2, ptr noundef %6, i64 noundef %7) #12
  %9 = load ptr, ptr %2, align 8
  call void @_ZN2os5Linux16set_libc_versionEPKc(ptr noundef %9)
  %10 = call i64 @confstr(i32 noundef 3, ptr noundef null, i64 noundef 0) #12
  store i64 %10, ptr %1, align 8
  %11 = load i64, ptr %1, align 8
  %12 = call noundef ptr @_ZN2os6mallocEm8MEMFLAGS(i64 noundef %11, i8 noundef zeroext 9)
  store ptr %12, ptr %2, align 8
  %13 = load ptr, ptr %2, align 8
  %14 = load i64, ptr %1, align 8
  %15 = call i64 @confstr(i32 noundef 3, ptr noundef %13, i64 noundef %14) #12
  %16 = load ptr, ptr %2, align 8
  call void @_ZN2os5Linux22set_libpthread_versionEPKc(ptr noundef %16)
  ret void
}