; Function Attrs: mustprogress nounwind uwtable
define hidden void @_ZN2os5Linux15libpthread_initEv() local_unnamed_addr #0 align 2 {
  %1 = tail call i64 @confstr(i32 noundef 2, ptr noundef null, i64 noundef 0) #26
  %2 = tail call noundef ptr @_ZN2os6mallocEm8MEMFLAGS(i64 noundef %1, i8 noundef zeroext 9) #26
  %3 = tail call i64 @confstr(i32 noundef 2, ptr noundef %2, i64 noundef %1) #26
  store ptr %2, ptr @_ZN2os5Linux13_libc_versionE, align 8
  %4 = tail call i64 @confstr(i32 noundef 3, ptr noundef null, i64 noundef 0) #26
  %5 = tail call noundef ptr @_ZN2os6mallocEm8MEMFLAGS(i64 noundef %4, i8 noundef zeroext 9) #26
  %6 = tail call i64 @confstr(i32 noundef 3, ptr noundef %5, i64 noundef %4) #26
  store ptr %5, ptr @_ZN2os5Linux19_libpthread_versionE, align 8
  ret void
}